target datalayout = "e-m:e-p270:32:32-p271:32:32-p272:64:64-i64:64-i128:128-f80:128-n8:16:32:64-S128"
target triple = "x86_64-pc-linux-gnu"

%struct._lv_textarea_t = type { %struct._lv_obj_t, ptr, ptr, ptr, ptr, ptr, i32, i32, %struct.anon, i32, i32, i8 }
%struct._lv_obj_t = type { ptr, ptr, ptr, ptr, ptr, %struct.lv_area_t, i32, i16, i16 }
%struct.lv_area_t = type { i32, i32, i32, i32 }
%struct.anon = type { i32, i32, %struct.lv_area_t, i32, i8 }

; Function Attrs: nounwind uwtable
define void @lv_textarea_set_one_line(ptr noundef %0, i1 noundef zeroext %1) #0 {
  %3 = alloca ptr, align 8
  %4 = alloca i8, align 1
  %5 = alloca ptr, align 8
  %6 = alloca i32, align 4
  %7 = alloca i32, align 4
  %8 = alloca i32, align 4
  store ptr %0, ptr %3, align 8, !tbaa !8
  %9 = zext i1 %1 to i8
  store i8 %9, ptr %4, align 1, !tbaa !56
  br label %10

10:                                               ; preds = %2
  %11 = load ptr, ptr %3, align 8, !tbaa !8
  %12 = icmp ne ptr %11, null
  br i1 %12, label %17, label %13

13:                                               ; preds = %10
  br label %14

14:                                               ; preds = %13
  br label %15

15:                                               ; preds = %14
  br label %16

16:                                               ; preds = %15, %16
  br label %16

17:                                               ; preds = %10
  br label %18

18:                                               ; preds = %17
  call void @llvm.lifetime.start.p0(i64 8, ptr %5) #6
  %19 = load ptr, ptr %3, align 8, !tbaa !8
  store ptr %19, ptr %5, align 8, !tbaa !10
  %20 = load ptr, ptr %5, align 8, !tbaa !10
  %21 = getelementptr inbounds nuw %struct._lv_textarea_t, ptr %20, i32 0, i32 11
  %22 = load i8, ptr %21, align 8
  %23 = lshr i8 %22, 3
  %24 = and i8 %23, 1
  %25 = zext i8 %24 to i32
  %26 = load i8, ptr %4, align 1, !tbaa !56, !range !58, !noundef !59
  %27 = trunc i8 %26 to i1
  %28 = zext i1 %27 to i32
  %29 = icmp eq i32 %25, %28
  br i1 %29, label %30, label %31

30:                                               ; preds = %18
  store i32 1, ptr %6, align 4
  br label %74

31:                                               ; preds = %18
  %32 = load i8, ptr %4, align 1, !tbaa !56, !range !58, !noundef !59
  %33 = trunc i8 %32 to i1
  %34 = select i1 %33, i32 1, i32 0
  %35 = trunc i32 %34 to i8
  %36 = load ptr, ptr %5, align 8, !tbaa !10
  %37 = getelementptr inbounds nuw %struct._lv_textarea_t, ptr %36, i32 0, i32 11
  %38 = load i8, ptr %37, align 8
  %39 = and i8 %35, 1
  %40 = shl i8 %39, 3
  %41 = and i8 %38, -9
  %42 = or i8 %41, %40
  store i8 %42, ptr %37, align 8
  call void @llvm.lifetime.start.p0(i64 4, ptr %7) #6
  %43 = load i8, ptr %4, align 1, !tbaa !56, !range !58, !noundef !59
  %44 = trunc i8 %43 to i1
  br i1 %44, label %45, label %46

45:                                               ; preds = %31
  br label %48

46:                                               ; preds = %31
  %47 = call i32 @lv_pct(i32 noundef 100)
  br label %48

48:                                               ; preds = %46, %45
  %49 = phi i32 [ 1073741823, %45 ], [ %47, %46 ]
  store i32 %49, ptr %7, align 4, !tbaa !32
  call void @llvm.lifetime.start.p0(i64 4, ptr %8) #6
  %50 = load i8, ptr %4, align 1, !tbaa !56, !range !58, !noundef !59
  %51 = trunc i8 %50 to i1
  br i1 %51, label %52, label %54

52:                                               ; preds = %48
  %53 = call i32 @lv_pct(i32 noundef 100)
  br label %55

54:                                               ; preds = %48
  br label %55

55:                                               ; preds = %54, %52
  %56 = phi i32 [ %53, %52 ], [ 0, %54 ]
  store i32 %56, ptr %8, align 4, !tbaa !32
  %57 = load ptr, ptr %5, align 8, !tbaa !10
  %58 = getelementptr inbounds nuw %struct._lv_textarea_t, ptr %57, i32 0, i32 1
  %59 = load ptr, ptr %58, align 8, !tbaa !28
  %60 = load i32, ptr %7, align 4, !tbaa !32
  call void @lv_obj_set_width(ptr noundef %59, i32 noundef %60)
  %61 = load ptr, ptr %5, align 8, !tbaa !10
  %62 = getelementptr inbounds nuw %struct._lv_textarea_t, ptr %61, i32 0, i32 1
  %63 = load ptr, ptr %62, align 8, !tbaa !28
  %64 = load i32, ptr %8, align 4, !tbaa !32
  call void @lv_obj_set_style_min_width(ptr noundef %63, i32 noundef %64, i32 noundef 0)
  %65 = load i8, ptr %4, align 1, !tbaa !56, !range !58, !noundef !59
  %66 = trunc i8 %65 to i1
  br i1 %66, label %67, label %69

67:                                               ; preds = %55
  %68 = load ptr, ptr %3, align 8, !tbaa !8
  call void @lv_obj_set_height(ptr noundef %68, i32 noundef 1073741823)
  br label %72

69:                                               ; preds = %55
  %70 = load ptr, ptr %3, align 8, !tbaa !8
  %71 = call zeroext i1 @lv_obj_remove_local_style_prop(ptr noundef %70, i8 noundef zeroext 2, i32 noundef 0)
  br label %72

72:                                               ; preds = %69, %67
  %73 = load ptr, ptr %3, align 8, !tbaa !8
  call void @lv_obj_scroll_to(ptr noundef %73, i32 noundef 0, i32 noundef 0, i1 noundef zeroext false)
  call void @llvm.lifetime.end.p0(i64 4, ptr %8) #6
  call void @llvm.lifetime.end.p0(i64 4, ptr %7) #6
  store i32 0, ptr %6, align 4
  br label %74

74:                                               ; preds = %72, %30
  call void @llvm.lifetime.end.p0(i64 8, ptr %5) #6
  %75 = load i32, ptr %6, align 4
  switch i32 %75, label %77 [
    i32 0, label %76
    i32 1, label %76
  ]

76:                                               ; preds = %74, %74
  ret void

77:                                               ; preds = %74
  unreachable
}