; Function Attrs: nounwind uwtable
define void @lv_textarea_set_one_line(ptr noundef %0, i1 noundef zeroext %1) local_unnamed_addr #0 {
  %.not = icmp eq ptr %0, null
  br i1 %.not, label %.preheader, label %3

.preheader:                                       ; preds = %2, %.preheader
  br label %.preheader

3:                                                ; preds = %2
  %4 = getelementptr inbounds nuw i8, ptr %0, i64 152
  %5 = load i8, ptr %4, align 8
  %6 = and i8 %5, 8
  %7 = icmp eq i8 %6, 0
  %8 = xor i1 %1, %7
  br i1 %8, label %21, label %9

9:                                                ; preds = %3
  %10 = select i1 %1, i8 8, i8 0
  %11 = and i8 %5, -9
  %12 = or disjoint i8 %11, %10
  store i8 %12, ptr %4, align 8
  %13 = tail call i32 @lv_pct(i32 noundef 100) #10
  %14 = getelementptr inbounds nuw i8, ptr %0, i64 64
  %15 = load ptr, ptr %14, align 8, !tbaa !22
  br i1 %1, label %16, label %.critedge

16:                                               ; preds = %9
  tail call void @lv_obj_set_width(ptr noundef %15, i32 noundef 1073741823) #10
  %17 = load ptr, ptr %14, align 8, !tbaa !22
  tail call void @lv_obj_set_style_min_width(ptr noundef %17, i32 noundef %13, i32 noundef 0) #10
  tail call void @lv_obj_set_height(ptr noundef nonnull %0, i32 noundef 1073741823) #10
  br label %20

.critedge:                                        ; preds = %9
  tail call void @lv_obj_set_width(ptr noundef %15, i32 noundef %13) #10
  %18 = load ptr, ptr %14, align 8, !tbaa !22
  tail call void @lv_obj_set_style_min_width(ptr noundef %18, i32 noundef 0, i32 noundef 0) #10
  %19 = tail call zeroext i1 @lv_obj_remove_local_style_prop(ptr noundef nonnull %0, i8 noundef zeroext 2, i32 noundef 0) #10
  br label %20

20:                                               ; preds = %.critedge, %16
  tail call void @lv_obj_scroll_to(ptr noundef nonnull %0, i32 noundef 0, i32 noundef 0, i1 noundef zeroext false) #10
  br label %21

21:                                               ; preds = %3, %20
  ret void
}